; ModuleID = '2/352.c'
source_filename = "2/352.c"
target datalayout = "e-m:e-p270:32:32-p271:32:32-p272:64:64-i64:64-f80:128-n8:16:32:64-S128"
target triple = "x86_64-pc-linux-gnu"

%struct.stu = type { i32, [26 x i8], i32 }

@.str = private unnamed_addr constant [3 x i8] c"%d\00", align 1
@.str.1 = private unnamed_addr constant [5 x i8] c"%d%s\00", align 1
@a = common dso_local global [1000 x %struct.stu] zeroinitializer, align 16
@.str.2 = private unnamed_addr constant [7 x i8] c"%c\0A%d\0A\00", align 1
@.str.3 = private unnamed_addr constant [4 x i8] c"%d\0A\00", align 1

; Function Attrs: noinline nounwind uwtable
define dso_local i32 @main() #0 {
  %1 = alloca i32, align 4
  %2 = alloca i32, align 4
  %3 = alloca i32, align 4
  %4 = alloca i32, align 4
  %5 = alloca i32, align 4
  %6 = alloca i32, align 4
  %7 = alloca i8, align 1
  %8 = alloca i8, align 1
  store i32 0, i32* %1, align 4
  store i32 0, i32* %5, align 4
  store i32 0, i32* %6, align 4
  %9 = call i32 (i8*, ...) @__isoc99_scanf(i8* getelementptr inbounds ([3 x i8], [3 x i8]* @.str, i64 0, i64 0), i32* %2)
  store i32 0, i32* %3, align 4
  br label %10

10:                                               ; preds = %36, %0
  %11 = load i32, i32* %3, align 4
  %12 = load i32, i32* %2, align 4
  %13 = icmp slt i32 %11, %12
  br i1 %13, label %14, label %39

14:                                               ; preds = %10
  %15 = load i32, i32* %3, align 4
  %16 = sext i32 %15 to i64
  %17 = getelementptr inbounds [1000 x %struct.stu], [1000 x %struct.stu]* @a, i64 0, i64 %16
  %18 = getelementptr inbounds %struct.stu, %struct.stu* %17, i32 0, i32 0
  %19 = load i32, i32* %3, align 4
  %20 = sext i32 %19 to i64
  %21 = getelementptr inbounds [1000 x %struct.stu], [1000 x %struct.stu]* @a, i64 0, i64 %20
  %22 = getelementptr inbounds %struct.stu, %struct.stu* %21, i32 0, i32 1
  %23 = getelementptr inbounds [26 x i8], [26 x i8]* %22, i64 0, i64 0
  %24 = call i32 (i8*, ...) @__isoc99_scanf(i8* getelementptr inbounds ([5 x i8], [5 x i8]* @.str.1, i64 0, i64 0), i32* %18, i8* %23)
  %25 = load i32, i32* %3, align 4
  %26 = sext i32 %25 to i64
  %27 = getelementptr inbounds [1000 x %struct.stu], [1000 x %struct.stu]* @a, i64 0, i64 %26
  %28 = getelementptr inbounds %struct.stu, %struct.stu* %27, i32 0, i32 1
  %29 = getelementptr inbounds [26 x i8], [26 x i8]* %28, i64 0, i64 0
  %30 = call i64 @strlen(i8* %29) #3
  %31 = trunc i64 %30 to i32
  %32 = load i32, i32* %3, align 4
  %33 = sext i32 %32 to i64
  %34 = getelementptr inbounds [1000 x %struct.stu], [1000 x %struct.stu]* @a, i64 0, i64 %33
  %35 = getelementptr inbounds %struct.stu, %struct.stu* %34, i32 0, i32 2
  store i32 %31, i32* %35, align 4
  br label %36

36:                                               ; preds = %14
  %37 = load i32, i32* %3, align 4
  %38 = add nsw i32 %37, 1
  store i32 %38, i32* %3, align 4
  br label %10

39:                                               ; preds = %10
  store i8 65, i8* %7, align 1
  br label %40

40:                                               ; preds = %90, %39
  %41 = load i8, i8* %7, align 1
  %42 = sext i8 %41 to i32
  %43 = icmp sle i32 %42, 90
  br i1 %43, label %44, label %93

44:                                               ; preds = %40
  store i32 0, i32* %5, align 4
  store i32 0, i32* %3, align 4
  br label %45

45:                                               ; preds = %79, %44
  %46 = load i32, i32* %3, align 4
  %47 = load i32, i32* %2, align 4
  %48 = icmp slt i32 %46, %47
  br i1 %48, label %49, label %82

49:                                               ; preds = %45
  store i32 0, i32* %4, align 4
  br label %50

50:                                               ; preds = %75, %49
  %51 = load i32, i32* %4, align 4
  %52 = load i32, i32* %3, align 4
  %53 = sext i32 %52 to i64
  %54 = getelementptr inbounds [1000 x %struct.stu], [1000 x %struct.stu]* @a, i64 0, i64 %53
  %55 = getelementptr inbounds %struct.stu, %struct.stu* %54, i32 0, i32 2
  %56 = load i32, i32* %55, align 4
  %57 = icmp slt i32 %51, %56
  br i1 %57, label %58, label %78

58:                                               ; preds = %50
  %59 = load i32, i32* %3, align 4
  %60 = sext i32 %59 to i64
  %61 = getelementptr inbounds [1000 x %struct.stu], [1000 x %struct.stu]* @a, i64 0, i64 %60
  %62 = getelementptr inbounds %struct.stu, %struct.stu* %61, i32 0, i32 1
  %63 = load i32, i32* %4, align 4
  %64 = sext i32 %63 to i64
  %65 = getelementptr inbounds [26 x i8], [26 x i8]* %62, i64 0, i64 %64
  %66 = load i8, i8* %65, align 1
  %67 = sext i8 %66 to i32
  %68 = load i8, i8* %7, align 1
  %69 = sext i8 %68 to i32
  %70 = icmp eq i32 %67, %69
  br i1 %70, label %71, label %74

71:                                               ; preds = %58
  %72 = load i32, i32* %5, align 4
  %73 = add nsw i32 %72, 1
  store i32 %73, i32* %5, align 4
  br label %78

74:                                               ; preds = %58
  br label %75

75:                                               ; preds = %74
  %76 = load i32, i32* %4, align 4
  %77 = add nsw i32 %76, 1
  store i32 %77, i32* %4, align 4
  br label %50

78:                                               ; preds = %71, %50
  br label %79

79:                                               ; preds = %78
  %80 = load i32, i32* %3, align 4
  %81 = add nsw i32 %80, 1
  store i32 %81, i32* %3, align 4
  br label %45

82:                                               ; preds = %45
  %83 = load i32, i32* %5, align 4
  %84 = load i32, i32* %6, align 4
  %85 = icmp sgt i32 %83, %84
  br i1 %85, label %86, label %89

86:                                               ; preds = %82
  %87 = load i32, i32* %5, align 4
  store i32 %87, i32* %6, align 4
  %88 = load i8, i8* %7, align 1
  store i8 %88, i8* %8, align 1
  br label %89

89:                                               ; preds = %86, %82
  br label %90

90:                                               ; preds = %89
  %91 = load i8, i8* %7, align 1
  %92 = add i8 %91, 1
  store i8 %92, i8* %7, align 1
  br label %40

93:                                               ; preds = %40
  %94 = load i8, i8* %8, align 1
  %95 = sext i8 %94 to i32
  %96 = load i32, i32* %6, align 4
  %97 = call i32 (i8*, ...) @printf(i8* getelementptr inbounds ([7 x i8], [7 x i8]* @.str.2, i64 0, i64 0), i32 %95, i32 %96)
  store i32 0, i32* %3, align 4
  br label %98

98:                                               ; preds = %136, %93
  %99 = load i32, i32* %3, align 4
  %100 = load i32, i32* %2, align 4
  %101 = icmp slt i32 %99, %100
  br i1 %101, label %102, label %139

102:                                              ; preds = %98
  store i32 0, i32* %4, align 4
  br label %103

103:                                              ; preds = %132, %102
  %104 = load i32, i32* %4, align 4
  %105 = load i32, i32* %3, align 4
  %106 = sext i32 %105 to i64
  %107 = getelementptr inbounds [1000 x %struct.stu], [1000 x %struct.stu]* @a, i64 0, i64 %106
  %108 = getelementptr inbounds %struct.stu, %struct.stu* %107, i32 0, i32 2
  %109 = load i32, i32* %108, align 4
  %110 = icmp slt i32 %104, %109
  br i1 %110, label %111, label %135

111:                                              ; preds = %103
  %112 = load i32, i32* %3, align 4
  %113 = sext i32 %112 to i64
  %114 = getelementptr inbounds [1000 x %struct.stu], [1000 x %struct.stu]* @a, i64 0, i64 %113
  %115 = getelementptr inbounds %struct.stu, %struct.stu* %114, i32 0, i32 1
  %116 = load i32, i32* %4, align 4
  %117 = sext i32 %116 to i64
  %118 = getelementptr inbounds [26 x i8], [26 x i8]* %115, i64 0, i64 %117
  %119 = load i8, i8* %118, align 1
  %120 = sext i8 %119 to i32
  %121 = load i8, i8* %8, align 1
  %122 = sext i8 %121 to i32
  %123 = icmp eq i32 %120, %122
  br i1 %123, label %124, label %131

124:                                              ; preds = %111
  %125 = load i32, i32* %3, align 4
  %126 = sext i32 %125 to i64
  %127 = getelementptr inbounds [1000 x %struct.stu], [1000 x %struct.stu]* @a, i64 0, i64 %126
  %128 = getelementptr inbounds %struct.stu, %struct.stu* %127, i32 0, i32 0
  %129 = load i32, i32* %128, align 4
  %130 = call i32 (i8*, ...) @printf(i8* getelementptr inbounds ([4 x i8], [4 x i8]* @.str.3, i64 0, i64 0), i32 %129)
  br label %135

131:                                              ; preds = %111
  br label %132

132:                                              ; preds = %131
  %133 = load i32, i32* %4, align 4
  %134 = add nsw i32 %133, 1
  store i32 %134, i32* %4, align 4
  br label %103

135:                                              ; preds = %124, %103
  br label %136

136:                                              ; preds = %135
  %137 = load i32, i32* %3, align 4
  %138 = add nsw i32 %137, 1
  store i32 %138, i32* %3, align 4
  br label %98

139:                                              ; preds = %98
  ret i32 0
}

declare dso_local i32 @__isoc99_scanf(i8*, ...) #1

; Function Attrs: nounwind readonly
declare dso_local i64 @strlen(i8*) #2

declare dso_local i32 @printf(i8*, ...) #1


!llvm.module.flags = !{!0}
!llvm.ident = !{!1}

!0 = !{i32 1, !"wchar_size", i32 4}
!1 = !{!"clang version 10.0.0-4ubuntu1 "}
